target datalayout = "e-m:e-p270:32:32-p271:32:32-p272:64:64-i64:64-i128:128-f80:128-n8:16:32:64-S128"
target triple = "x86_64-pc-linux-gnu"

%struct.gcm_funcs_st = type { ptr, ptr, ptr }
%struct.gcm128_context = type { %union.anon, %union.anon, %union.anon, %union.anon, %union.anon, %union.anon, [16 x %struct.u128], %struct.gcm_funcs_st, i32, i32, ptr, ptr, [48 x i8] }
%union.anon = type { [2 x i64] }
%struct.u128 = type { i64, i64 }

; Function Attrs: nounwind uwtable
define void @CRYPTO_gcm128_setiv(ptr noundef %0, ptr noundef %1, i64 noundef %2) #0 {
  %4 = alloca ptr, align 8
  %5 = alloca ptr, align 8
  %6 = alloca i64, align 8
  %7 = alloca i32, align 4
  %8 = alloca i32, align 4
  %9 = alloca i64, align 8
  %10 = alloca i64, align 8
  %11 = alloca i64, align 8
  %12 = alloca i64, align 8
  %13 = alloca i32, align 4
  %14 = alloca i32, align 4
  %15 = alloca i32, align 4
  %16 = alloca i32, align 4
  store ptr %0, ptr %4, align 8, !tbaa !25
  store ptr %1, ptr %5, align 8, !tbaa !17
  store i64 %2, ptr %6, align 8, !tbaa !19
  call void @llvm.lifetime.start.p0(i64 4, ptr %7) #5
  store i32 1, ptr %7, align 4, !tbaa !15
  call void @llvm.lifetime.start.p0(i64 4, ptr %8) #5
  %17 = load ptr, ptr %4, align 8, !tbaa !25
  %18 = getelementptr inbounds nuw %struct.gcm128_context, ptr %17, i32 0, i32 3
  %19 = getelementptr inbounds [2 x i64], ptr %18, i64 0, i64 0
  store i64 0, ptr %19, align 8, !tbaa !30
  %20 = load ptr, ptr %4, align 8, !tbaa !25
  %21 = getelementptr inbounds nuw %struct.gcm128_context, ptr %20, i32 0, i32 3
  %22 = getelementptr inbounds [2 x i64], ptr %21, i64 0, i64 1
  store i64 0, ptr %22, align 8, !tbaa !30
  %23 = load ptr, ptr %4, align 8, !tbaa !25
  %24 = getelementptr inbounds nuw %struct.gcm128_context, ptr %23, i32 0, i32 9
  store i32 0, ptr %24, align 4, !tbaa !34
  %25 = load ptr, ptr %4, align 8, !tbaa !25
  %26 = getelementptr inbounds nuw %struct.gcm128_context, ptr %25, i32 0, i32 8
  store i32 0, ptr %26, align 8, !tbaa !35
  %27 = load i64, ptr %6, align 8, !tbaa !19
  %28 = icmp eq i64 %27, 12
  br i1 %28, label %29, label %46

29:                                               ; preds = %3
  %30 = load ptr, ptr %4, align 8, !tbaa !25
  %31 = getelementptr inbounds nuw %struct.gcm128_context, ptr %30, i32 0, i32 0
  %32 = getelementptr inbounds [16 x i8], ptr %31, i64 0, i64 0
  %33 = load ptr, ptr %5, align 8, !tbaa !17
  call void @llvm.memcpy.p0.p0.i64(ptr align 8 %32, ptr align 1 %33, i64 12, i1 false)
  %34 = load ptr, ptr %4, align 8, !tbaa !25
  %35 = getelementptr inbounds nuw %struct.gcm128_context, ptr %34, i32 0, i32 0
  %36 = getelementptr inbounds [16 x i8], ptr %35, i64 0, i64 12
  store i8 0, ptr %36, align 4, !tbaa !30
  %37 = load ptr, ptr %4, align 8, !tbaa !25
  %38 = getelementptr inbounds nuw %struct.gcm128_context, ptr %37, i32 0, i32 0
  %39 = getelementptr inbounds [16 x i8], ptr %38, i64 0, i64 13
  store i8 0, ptr %39, align 1, !tbaa !30
  %40 = load ptr, ptr %4, align 8, !tbaa !25
  %41 = getelementptr inbounds nuw %struct.gcm128_context, ptr %40, i32 0, i32 0
  %42 = getelementptr inbounds [16 x i8], ptr %41, i64 0, i64 14
  store i8 0, ptr %42, align 2, !tbaa !30
  %43 = load ptr, ptr %4, align 8, !tbaa !25
  %44 = getelementptr inbounds nuw %struct.gcm128_context, ptr %43, i32 0, i32 0
  %45 = getelementptr inbounds [16 x i8], ptr %44, i64 0, i64 15
  store i8 1, ptr %45, align 1, !tbaa !30
  store i32 1, ptr %8, align 4, !tbaa !15
  br label %174

46:                                               ; preds = %3
  call void @llvm.lifetime.start.p0(i64 8, ptr %9) #5
  call void @llvm.lifetime.start.p0(i64 8, ptr %10) #5
  %47 = load i64, ptr %6, align 8, !tbaa !19
  store i64 %47, ptr %10, align 8, !tbaa !21
  %48 = load ptr, ptr %4, align 8, !tbaa !25
  %49 = getelementptr inbounds nuw %struct.gcm128_context, ptr %48, i32 0, i32 4
  %50 = getelementptr inbounds [2 x i64], ptr %49, i64 0, i64 0
  store i64 0, ptr %50, align 8, !tbaa !30
  %51 = load ptr, ptr %4, align 8, !tbaa !25
  %52 = getelementptr inbounds nuw %struct.gcm128_context, ptr %51, i32 0, i32 4
  %53 = getelementptr inbounds [2 x i64], ptr %52, i64 0, i64 1
  store i64 0, ptr %53, align 8, !tbaa !30
  br label %54

54:                                               ; preds = %78, %46
  %55 = load i64, ptr %6, align 8, !tbaa !19
  %56 = icmp uge i64 %55, 16
  br i1 %56, label %57, label %93

57:                                               ; preds = %54
  store i64 0, ptr %9, align 8, !tbaa !19
  br label %58

58:                                               ; preds = %75, %57
  %59 = load i64, ptr %9, align 8, !tbaa !19
  %60 = icmp ult i64 %59, 16
  br i1 %60, label %61, label %78

61:                                               ; preds = %58
  %62 = load ptr, ptr %5, align 8, !tbaa !17
  %63 = load i64, ptr %9, align 8, !tbaa !19
  %64 = getelementptr inbounds nuw i8, ptr %62, i64 %63
  %65 = load i8, ptr %64, align 1, !tbaa !30
  %66 = zext i8 %65 to i32
  %67 = load ptr, ptr %4, align 8, !tbaa !25
  %68 = getelementptr inbounds nuw %struct.gcm128_context, ptr %67, i32 0, i32 4
  %69 = load i64, ptr %9, align 8, !tbaa !19
  %70 = getelementptr inbounds nuw [16 x i8], ptr %68, i64 0, i64 %69
  %71 = load i8, ptr %70, align 1, !tbaa !30
  %72 = zext i8 %71 to i32
  %73 = xor i32 %72, %66
  %74 = trunc i32 %73 to i8
  store i8 %74, ptr %70, align 1, !tbaa !30
  br label %75

75:                                               ; preds = %61
  %76 = load i64, ptr %9, align 8, !tbaa !19
  %77 = add i64 %76, 1
  store i64 %77, ptr %9, align 8, !tbaa !19
  br label %58, !llvm.loop !36

78:                                               ; preds = %58
  %79 = load ptr, ptr %4, align 8, !tbaa !25
  %80 = getelementptr inbounds nuw %struct.gcm128_context, ptr %79, i32 0, i32 7
  %81 = getelementptr inbounds nuw %struct.gcm_funcs_st, ptr %80, i32 0, i32 2
  %82 = load ptr, ptr %81, align 8, !tbaa !37
  %83 = load ptr, ptr %4, align 8, !tbaa !25
  %84 = getelementptr inbounds nuw %struct.gcm128_context, ptr %83, i32 0, i32 4
  %85 = getelementptr inbounds [2 x i64], ptr %84, i64 0, i64 0
  %86 = load ptr, ptr %4, align 8, !tbaa !25
  %87 = getelementptr inbounds nuw %struct.gcm128_context, ptr %86, i32 0, i32 6
  %88 = getelementptr inbounds [16 x %struct.u128], ptr %87, i64 0, i64 0
  call void %82(ptr noundef %85, ptr noundef %88)
  %89 = load ptr, ptr %5, align 8, !tbaa !17
  %90 = getelementptr inbounds i8, ptr %89, i64 16
  store ptr %90, ptr %5, align 8, !tbaa !17
  %91 = load i64, ptr %6, align 8, !tbaa !19
  %92 = sub i64 %91, 16
  store i64 %92, ptr %6, align 8, !tbaa !19
  br label %54, !llvm.loop !38

93:                                               ; preds = %54
  %94 = load i64, ptr %6, align 8, !tbaa !19
  %95 = icmp ne i64 %94, 0
  br i1 %95, label %96, label %129

96:                                               ; preds = %93
  store i64 0, ptr %9, align 8, !tbaa !19
  br label %97

97:                                               ; preds = %115, %96
  %98 = load i64, ptr %9, align 8, !tbaa !19
  %99 = load i64, ptr %6, align 8, !tbaa !19
  %100 = icmp ult i64 %98, %99
  br i1 %100, label %101, label %118

101:                                              ; preds = %97
  %102 = load ptr, ptr %5, align 8, !tbaa !17
  %103 = load i64, ptr %9, align 8, !tbaa !19
  %104 = getelementptr inbounds nuw i8, ptr %102, i64 %103
  %105 = load i8, ptr %104, align 1, !tbaa !30
  %106 = zext i8 %105 to i32
  %107 = load ptr, ptr %4, align 8, !tbaa !25
  %108 = getelementptr inbounds nuw %struct.gcm128_context, ptr %107, i32 0, i32 4
  %109 = load i64, ptr %9, align 8, !tbaa !19
  %110 = getelementptr inbounds nuw [16 x i8], ptr %108, i64 0, i64 %109
  %111 = load i8, ptr %110, align 1, !tbaa !30
  %112 = zext i8 %111 to i32
  %113 = xor i32 %112, %106
  %114 = trunc i32 %113 to i8
  store i8 %114, ptr %110, align 1, !tbaa !30
  br label %115

115:                                              ; preds = %101
  %116 = load i64, ptr %9, align 8, !tbaa !19
  %117 = add i64 %116, 1
  store i64 %117, ptr %9, align 8, !tbaa !19
  br label %97, !llvm.loop !39

118:                                              ; preds = %97
  %119 = load ptr, ptr %4, align 8, !tbaa !25
  %120 = getelementptr inbounds nuw %struct.gcm128_context, ptr %119, i32 0, i32 7
  %121 = getelementptr inbounds nuw %struct.gcm_funcs_st, ptr %120, i32 0, i32 2
  %122 = load ptr, ptr %121, align 8, !tbaa !37
  %123 = load ptr, ptr %4, align 8, !tbaa !25
  %124 = getelementptr inbounds nuw %struct.gcm128_context, ptr %123, i32 0, i32 4
  %125 = getelementptr inbounds [2 x i64], ptr %124, i64 0, i64 0
  %126 = load ptr, ptr %4, align 8, !tbaa !25
  %127 = getelementptr inbounds nuw %struct.gcm128_context, ptr %126, i32 0, i32 6
  %128 = getelementptr inbounds [16 x %struct.u128], ptr %127, i64 0, i64 0
  call void %122(ptr noundef %125, ptr noundef %128)
  br label %129

129:                                              ; preds = %118, %93
  %130 = load i64, ptr %10, align 8, !tbaa !21
  %131 = shl i64 %130, 3
  store i64 %131, ptr %10, align 8, !tbaa !21
  call void @llvm.lifetime.start.p0(i64 8, ptr %11) #5
  %132 = load i64, ptr %10, align 8, !tbaa !21
  store i64 %132, ptr %11, align 8, !tbaa !21
  %133 = load i64, ptr %11, align 8, !tbaa !21
  %134 = call i64 asm "bswapq $0", "=r,0,~{dirflag},~{fpsr},~{flags}"(i64 %133) #6, !srcloc !40
  store i64 %134, ptr %11, align 8, !tbaa !21
  %135 = load i64, ptr %11, align 8, !tbaa !21
  store i64 %135, ptr %12, align 8, !tbaa !21
  call void @llvm.lifetime.end.p0(i64 8, ptr %11) #5
  %136 = load i64, ptr %12, align 8, !tbaa !21
  %137 = load ptr, ptr %4, align 8, !tbaa !25
  %138 = getelementptr inbounds nuw %struct.gcm128_context, ptr %137, i32 0, i32 4
  %139 = getelementptr inbounds [2 x i64], ptr %138, i64 0, i64 1
  %140 = load i64, ptr %139, align 8, !tbaa !30
  %141 = xor i64 %140, %136
  store i64 %141, ptr %139, align 8, !tbaa !30
  %142 = load ptr, ptr %4, align 8, !tbaa !25
  %143 = getelementptr inbounds nuw %struct.gcm128_context, ptr %142, i32 0, i32 7
  %144 = getelementptr inbounds nuw %struct.gcm_funcs_st, ptr %143, i32 0, i32 2
  %145 = load ptr, ptr %144, align 8, !tbaa !37
  %146 = load ptr, ptr %4, align 8, !tbaa !25
  %147 = getelementptr inbounds nuw %struct.gcm128_context, ptr %146, i32 0, i32 4
  %148 = getelementptr inbounds [2 x i64], ptr %147, i64 0, i64 0
  %149 = load ptr, ptr %4, align 8, !tbaa !25
  %150 = getelementptr inbounds nuw %struct.gcm128_context, ptr %149, i32 0, i32 6
  %151 = getelementptr inbounds [16 x %struct.u128], ptr %150, i64 0, i64 0
  call void %145(ptr noundef %148, ptr noundef %151)
  call void @llvm.lifetime.start.p0(i64 4, ptr %13) #5
  %152 = load ptr, ptr %4, align 8, !tbaa !25
  %153 = getelementptr inbounds nuw %struct.gcm128_context, ptr %152, i32 0, i32 4
  %154 = getelementptr inbounds [4 x i32], ptr %153, i64 0, i64 3
  %155 = load i32, ptr %154, align 4, !tbaa !30
  store i32 %155, ptr %13, align 4, !tbaa !15
  %156 = load i32, ptr %13, align 4, !tbaa !15
  %157 = call i32 asm "bswapl $0", "=r,0,~{dirflag},~{fpsr},~{flags}"(i32 %156) #6, !srcloc !41
  store i32 %157, ptr %13, align 4, !tbaa !15
  %158 = load i32, ptr %13, align 4, !tbaa !15
  store i32 %158, ptr %14, align 4, !tbaa !15
  call void @llvm.lifetime.end.p0(i64 4, ptr %13) #5
  %159 = load i32, ptr %14, align 4, !tbaa !15
  store i32 %159, ptr %8, align 4, !tbaa !15
  %160 = load ptr, ptr %4, align 8, !tbaa !25
  %161 = getelementptr inbounds nuw %struct.gcm128_context, ptr %160, i32 0, i32 4
  %162 = getelementptr inbounds [2 x i64], ptr %161, i64 0, i64 0
  %163 = load i64, ptr %162, align 8, !tbaa !30
  %164 = load ptr, ptr %4, align 8, !tbaa !25
  %165 = getelementptr inbounds nuw %struct.gcm128_context, ptr %164, i32 0, i32 0
  %166 = getelementptr inbounds [2 x i64], ptr %165, i64 0, i64 0
  store i64 %163, ptr %166, align 8, !tbaa !30
  %167 = load ptr, ptr %4, align 8, !tbaa !25
  %168 = getelementptr inbounds nuw %struct.gcm128_context, ptr %167, i32 0, i32 4
  %169 = getelementptr inbounds [2 x i64], ptr %168, i64 0, i64 1
  %170 = load i64, ptr %169, align 8, !tbaa !30
  %171 = load ptr, ptr %4, align 8, !tbaa !25
  %172 = getelementptr inbounds nuw %struct.gcm128_context, ptr %171, i32 0, i32 0
  %173 = getelementptr inbounds [2 x i64], ptr %172, i64 0, i64 1
  store i64 %170, ptr %173, align 8, !tbaa !30
  call void @llvm.lifetime.end.p0(i64 8, ptr %10) #5
  call void @llvm.lifetime.end.p0(i64 8, ptr %9) #5
  br label %174

174:                                              ; preds = %129, %29
  %175 = load ptr, ptr %4, align 8, !tbaa !25
  %176 = getelementptr inbounds nuw %struct.gcm128_context, ptr %175, i32 0, i32 4
  %177 = getelementptr inbounds [2 x i64], ptr %176, i64 0, i64 0
  store i64 0, ptr %177, align 8, !tbaa !30
  %178 = load ptr, ptr %4, align 8, !tbaa !25
  %179 = getelementptr inbounds nuw %struct.gcm128_context, ptr %178, i32 0, i32 4
  %180 = getelementptr inbounds [2 x i64], ptr %179, i64 0, i64 1
  store i64 0, ptr %180, align 8, !tbaa !30
  %181 = load ptr, ptr %4, align 8, !tbaa !25
  %182 = getelementptr inbounds nuw %struct.gcm128_context, ptr %181, i32 0, i32 10
  %183 = load ptr, ptr %182, align 8, !tbaa !27
  %184 = load ptr, ptr %4, align 8, !tbaa !25
  %185 = getelementptr inbounds nuw %struct.gcm128_context, ptr %184, i32 0, i32 0
  %186 = getelementptr inbounds [16 x i8], ptr %185, i64 0, i64 0
  %187 = load ptr, ptr %4, align 8, !tbaa !25
  %188 = getelementptr inbounds nuw %struct.gcm128_context, ptr %187, i32 0, i32 2
  %189 = getelementptr inbounds [16 x i8], ptr %188, i64 0, i64 0
  %190 = load ptr, ptr %4, align 8, !tbaa !25
  %191 = getelementptr inbounds nuw %struct.gcm128_context, ptr %190, i32 0, i32 11
  %192 = load ptr, ptr %191, align 8, !tbaa !29
  call void %183(ptr noundef %186, ptr noundef %189, ptr noundef %192)
  %193 = load i32, ptr %8, align 4, !tbaa !15
  %194 = add i32 %193, 1
  store i32 %194, ptr %8, align 4, !tbaa !15
  call void @llvm.lifetime.start.p0(i64 4, ptr %15) #5
  %195 = load i32, ptr %8, align 4, !tbaa !15
  store i32 %195, ptr %15, align 4, !tbaa !15
  %196 = load i32, ptr %15, align 4, !tbaa !15
  %197 = call i32 asm "bswapl $0", "=r,0,~{dirflag},~{fpsr},~{flags}"(i32 %196) #6, !srcloc !42
  store i32 %197, ptr %15, align 4, !tbaa !15
  %198 = load i32, ptr %15, align 4, !tbaa !15
  store i32 %198, ptr %16, align 4, !tbaa !15
  call void @llvm.lifetime.end.p0(i64 4, ptr %15) #5
  %199 = load i32, ptr %16, align 4, !tbaa !15
  %200 = load ptr, ptr %4, align 8, !tbaa !25
  %201 = getelementptr inbounds nuw %struct.gcm128_context, ptr %200, i32 0, i32 0
  %202 = getelementptr inbounds [4 x i32], ptr %201, i64 0, i64 3
  store i32 %199, ptr %202, align 4, !tbaa !30
  call void @llvm.lifetime.end.p0(i64 4, ptr %8) #5
  call void @llvm.lifetime.end.p0(i64 4, ptr %7) #5
  ret void
}