; Function Attrs: nounwind uwtable
define void @CRYPTO_gcm128_setiv(ptr noundef initializes((48, 80), (376, 384)) %0, ptr noundef readonly captures(none) %1, i64 noundef %2) local_unnamed_addr #0 {
  %4 = getelementptr inbounds nuw i8, ptr %0, i64 48
  %5 = getelementptr inbounds nuw i8, ptr %0, i64 380
  store i32 0, ptr %5, align 4, !tbaa !18
  %6 = getelementptr inbounds nuw i8, ptr %0, i64 376
  store i32 0, ptr %6, align 8, !tbaa !19
  %7 = icmp eq i64 %2, 12
  tail call void @llvm.memset.p0.i64(ptr noundef nonnull align 8 dereferenceable(16) %4, i8 0, i64 16, i1 false)
  br i1 %7, label %8, label %13

8:                                                ; preds = %3
  tail call void @llvm.memcpy.p0.p0.i64(ptr noundef nonnull align 8 dereferenceable(12) %0, ptr noundef nonnull align 1 dereferenceable(12) %1, i64 12, i1 false)
  %9 = getelementptr inbounds nuw i8, ptr %0, i64 12
  store i8 0, ptr %9, align 4, !tbaa !12
  %10 = getelementptr inbounds nuw i8, ptr %0, i64 13
  store i8 0, ptr %10, align 1, !tbaa !12
  %11 = getelementptr inbounds nuw i8, ptr %0, i64 14
  store i8 0, ptr %11, align 2, !tbaa !12
  %12 = getelementptr inbounds nuw i8, ptr %0, i64 15
  store i8 1, ptr %12, align 1, !tbaa !12
  br label %56

13:                                               ; preds = %3
  %14 = getelementptr inbounds nuw i8, ptr %0, i64 64
  %15 = getelementptr inbounds nuw i8, ptr %0, i64 72
  %16 = icmp ugt i64 %2, 15
  tail call void @llvm.memset.p0.i64(ptr noundef nonnull align 8 dereferenceable(16) %14, i8 0, i64 16, i1 false)
  br i1 %16, label %.preheader69.lr.ph, label %._crit_edge

.preheader69.lr.ph:                               ; preds = %13
  %17 = getelementptr inbounds nuw i8, ptr %0, i64 368
  %18 = getelementptr inbounds nuw i8, ptr %0, i64 96
  br label %.preheader69

.preheader69:                                     ; preds = %.preheader69.lr.ph, %26
  %.072 = phi ptr [ %1, %.preheader69.lr.ph ], [ %28, %26 ]
  %.06571 = phi i64 [ %2, %.preheader69.lr.ph ], [ %29, %26 ]
  br label %19

19:                                               ; preds = %.preheader69, %19
  %.06770 = phi i64 [ 0, %.preheader69 ], [ %25, %19 ]
  %20 = getelementptr inbounds nuw i8, ptr %.072, i64 %.06770
  %21 = load i8, ptr %20, align 1, !tbaa !12
  %22 = getelementptr inbounds nuw [16 x i8], ptr %14, i64 0, i64 %.06770
  %23 = load i8, ptr %22, align 1, !tbaa !12
  %24 = xor i8 %23, %21
  store i8 %24, ptr %22, align 1, !tbaa !12
  %25 = add nuw nsw i64 %.06770, 1
  %exitcond.not = icmp eq i64 %25, 16
  br i1 %exitcond.not, label %26, label %19, !llvm.loop !20

26:                                               ; preds = %19
  %27 = load ptr, ptr %17, align 8, !tbaa !22
  tail call void %27(ptr noundef nonnull %14, ptr noundef nonnull %18) #6
  %28 = getelementptr inbounds nuw i8, ptr %.072, i64 16
  %29 = add i64 %.06571, -16
  %30 = icmp ugt i64 %29, 15
  br i1 %30, label %.preheader69, label %._crit_edge, !llvm.loop !23

._crit_edge:                                      ; preds = %26, %13
  %.065.lcssa = phi i64 [ %2, %13 ], [ %29, %26 ]
  %.0.lcssa = phi ptr [ %1, %13 ], [ %28, %26 ]
  %.not = icmp eq i64 %.065.lcssa, 0
  br i1 %.not, label %41, label %.preheader

.preheader:                                       ; preds = %._crit_edge, %.preheader
  %.174 = phi i64 [ %36, %.preheader ], [ 0, %._crit_edge ]
  %31 = getelementptr inbounds nuw i8, ptr %.0.lcssa, i64 %.174
  %32 = load i8, ptr %31, align 1, !tbaa !12
  %33 = getelementptr inbounds nuw [16 x i8], ptr %14, i64 0, i64 %.174
  %34 = load i8, ptr %33, align 1, !tbaa !12
  %35 = xor i8 %34, %32
  store i8 %35, ptr %33, align 1, !tbaa !12
  %36 = add nuw i64 %.174, 1
  %exitcond76.not = icmp eq i64 %36, %.065.lcssa
  br i1 %exitcond76.not, label %37, label %.preheader, !llvm.loop !24

37:                                               ; preds = %.preheader
  %38 = getelementptr inbounds nuw i8, ptr %0, i64 368
  %39 = load ptr, ptr %38, align 8, !tbaa !22
  %40 = getelementptr inbounds nuw i8, ptr %0, i64 96
  tail call void %39(ptr noundef nonnull %14, ptr noundef nonnull %40) #6
  br label %41

41:                                               ; preds = %37, %._crit_edge
  %42 = shl i64 %2, 3
  %43 = tail call i64 asm "bswapq $0", "=r,0,~{dirflag},~{fpsr},~{flags}"(i64 %42) #7, !srcloc !25
  %44 = load i64, ptr %15, align 8, !tbaa !12
  %45 = xor i64 %44, %43
  store i64 %45, ptr %15, align 8, !tbaa !12
  %46 = getelementptr inbounds nuw i8, ptr %0, i64 368
  %47 = load ptr, ptr %46, align 8, !tbaa !22
  %48 = getelementptr inbounds nuw i8, ptr %0, i64 96
  tail call void %47(ptr noundef nonnull %14, ptr noundef nonnull %48) #6
  %49 = getelementptr inbounds nuw i8, ptr %0, i64 76
  %50 = load i32, ptr %49, align 4, !tbaa !12
  %51 = tail call i32 asm "bswapl $0", "=r,0,~{dirflag},~{fpsr},~{flags}"(i32 %50) #7, !srcloc !26
  %52 = load i64, ptr %14, align 8, !tbaa !12
  store i64 %52, ptr %0, align 8, !tbaa !12
  %53 = load i64, ptr %15, align 8, !tbaa !12
  %54 = getelementptr inbounds nuw i8, ptr %0, i64 8
  store i64 %53, ptr %54, align 8, !tbaa !12
  %55 = add i32 %51, 1
  br label %56

56:                                               ; preds = %41, %8
  %.066 = phi i32 [ 2, %8 ], [ %55, %41 ]
  %57 = getelementptr inbounds nuw i8, ptr %0, i64 64
  %58 = getelementptr inbounds nuw i8, ptr %0, i64 384
  tail call void @llvm.memset.p0.i64(ptr noundef nonnull align 8 dereferenceable(16) %57, i8 0, i64 16, i1 false)
  %59 = load ptr, ptr %58, align 8, !tbaa !7
  %60 = getelementptr inbounds nuw i8, ptr %0, i64 32
  %61 = getelementptr inbounds nuw i8, ptr %0, i64 392
  %62 = load ptr, ptr %61, align 8, !tbaa !11
  tail call void %59(ptr noundef nonnull %0, ptr noundef nonnull %60, ptr noundef %62) #6
  %63 = tail call i32 asm "bswapl $0", "=r,0,~{dirflag},~{fpsr},~{flags}"(i32 %.066) #7, !srcloc !27
  %64 = getelementptr inbounds nuw i8, ptr %0, i64 12
  store i32 %63, ptr %64, align 4, !tbaa !12
  ret void
}